ccopy_reg
_reconstructor
p0
(cgoogle.oauth2.credentials
Credentials
p1
c__builtin__
object
p2
Ntp3
Rp4
(dp5
S'_token_uri'
p6
Vhttps://oauth2.googleapis.com/token
p7
sS'_client_secret'
p8
VgHNaH6-9BLlExK2m3OMM5bgY
p9
sS'_id_token'
p10
NsS'token'
p11
Vya29.Il-pBzAHaGTyi5aZOz_fwngxkvA6-_y-Si8YKNbx3ozkq95NBLGMbCuwEE3yUdzWDS6ukYSx0YZMOdh2mEmeXQ4OH7hOjowUawt-yfs507a1bmC6QyGIb2Zy24gArtAa7g
p12
sS'_refresh_token'
p13
V1//0fr1Z_UNPIqphCgYIARAAGA8SNwF-L9IrcX-JDvc40Uv3zUuLXKNFjpQTj-3iug1aLsCz072rsnGhUzCQw8uJBZGxGfvM9WVIUCQ
p14
sS'_scopes'
p15
(lp16
S'https://www.googleapis.com/auth/youtube.force-ssl'
p17
asS'_client_id'
p18
V100606533580-4r8evchlosuoua0duej35u208vfrf15h.apps.googleusercontent.com
p19
sS'expiry'
p20
cdatetime
datetime
p21
(S'\x07\xe3\n\x1a\x15\x18\x1d\x01U\x97'
p22
tp23
Rp24
sb.